target datalayout = "e-m:e-p270:32:32-p271:32:32-p272:64:64-i64:64-i128:128-f80:128-n8:16:32:64-S128"
target triple = "x86_64-unknown-linux-gnu"

%"class.arrow::Status" = type { ptr }
%"class.std::basic_string_view" = type { i64, ptr }

@.str.1 = private unnamed_addr constant [3 x i8] c"\0D\0A\00", align 1

; Function Attrs: mustprogress nounwind uwtable
define linkonce_odr noundef ptr @_ZNSt11char_traitsIcE4findEPKcmRS1_(ptr noundef %__s, i64 noundef %__n, ptr noundef nonnull align 1 dereferenceable(1) %__a) #0 comdat align 2 {
entry:
  %retval = alloca ptr, align 8
  %__s.addr = alloca ptr, align 8
  %__n.addr = alloca i64, align 8
  %__a.addr = alloca ptr, align 8
  store ptr %__s, ptr %__s.addr, align 8
  store i64 %__n, ptr %__n.addr, align 8
  store ptr %__a, ptr %__a.addr, align 8
  %0 = load i64, ptr %__n.addr, align 8
  %cmp = icmp eq i64 %0, 0
  br i1 %cmp, label %if.then, label %if.end

if.then:                                          ; preds = %entry
  store ptr null, ptr %retval, align 8
  br label %return

if.end:                                           ; preds = %entry
  %1 = load ptr, ptr %__s.addr, align 8
  %2 = load ptr, ptr %__a.addr, align 8
  %3 = load i8, ptr %2, align 1
  %conv = sext i8 %3 to i32
  %4 = load i64, ptr %__n.addr, align 8
  %call = call ptr @memchr(ptr noundef %1, i32 noundef %conv, i64 noundef %4) #12
  store ptr %call, ptr %retval, align 8
  br label %return

return:                                           ; preds = %if.end, %if.then
  %5 = load ptr, ptr %retval, align 8
  ret ptr %5
}

; Function Attrs: mustprogress nounwind uwtable
define linkonce_odr void @_ZN5arrow6StatusC2Ev(ptr noundef nonnull align 8 dereferenceable(8) %this) unnamed_addr #0 comdat align 2 {
entry:
  %this.addr = alloca ptr, align 8
  store ptr %this, ptr %this.addr, align 8
  %this1 = load ptr, ptr %this.addr, align 8
  %state_ = getelementptr inbounds %"class.arrow::Status", ptr %this1, i32 0, i32 0
  store ptr null, ptr %state_, align 8
  ret void
}

; Function Attrs: mustprogress nounwind uwtable
define linkonce_odr noundef i64 @_ZNKSt17basic_string_viewIcSt11char_traitsIcEE17find_first_not_ofEPKcmm(ptr noundef nonnull align 8 dereferenceable(16) %this, ptr noundef %__str, i64 noundef %__pos, i64 noundef %__n) #0 comdat align 2 {
entry:
  %retval = alloca i64, align 8
  %this.addr = alloca ptr, align 8
  %__str.addr = alloca ptr, align 8
  %__pos.addr = alloca i64, align 8
  %__n.addr = alloca i64, align 8
  store ptr %this, ptr %this.addr, align 8
  store ptr %__str, ptr %__str.addr, align 8
  store i64 %__pos, ptr %__pos.addr, align 8
  store i64 %__n, ptr %__n.addr, align 8
  %this1 = load ptr, ptr %this.addr, align 8
  br label %for.cond

for.cond:                                         ; preds = %for.inc, %entry
  %0 = load i64, ptr %__pos.addr, align 8
  %_M_len = getelementptr inbounds %"class.std::basic_string_view", ptr %this1, i32 0, i32 0
  %1 = load i64, ptr %_M_len, align 8
  %cmp = icmp ult i64 %0, %1
  br i1 %cmp, label %for.body, label %for.end

for.body:                                         ; preds = %for.cond
  %2 = load ptr, ptr %__str.addr, align 8
  %3 = load i64, ptr %__n.addr, align 8
  %_M_str = getelementptr inbounds %"class.std::basic_string_view", ptr %this1, i32 0, i32 1
  %4 = load ptr, ptr %_M_str, align 8
  %5 = load i64, ptr %__pos.addr, align 8
  %arrayidx = getelementptr inbounds i8, ptr %4, i64 %5
  %call = call noundef ptr @_ZNSt11char_traitsIcE4findEPKcmRS1_(ptr noundef %2, i64 noundef %3, ptr noundef nonnull align 1 dereferenceable(1) %arrayidx)
  %tobool = icmp ne ptr %call, null
  br i1 %tobool, label %if.end, label %if.then

if.then:                                          ; preds = %for.body
  %6 = load i64, ptr %__pos.addr, align 8
  store i64 %6, ptr %retval, align 8
  br label %return

if.end:                                           ; preds = %for.body
  br label %for.inc

for.inc:                                          ; preds = %if.end
  %7 = load i64, ptr %__pos.addr, align 8
  %inc = add i64 %7, 1
  store i64 %inc, ptr %__pos.addr, align 8
  br label %for.cond, !llvm.loop !12

for.end:                                          ; preds = %for.cond
  store i64 -1, ptr %retval, align 8
  br label %return

return:                                           ; preds = %for.end, %if.then
  %8 = load i64, ptr %retval, align 8
  ret i64 %8
}

; Function Attrs: noreturn nounwind uwtable
define linkonce_odr hidden void @__clang_call_terminate(ptr noundef %0) #3 comdat {
  %2 = call ptr @__cxa_begin_catch(ptr %0) #12
  call void @_ZSt9terminatev() #11
  unreachable
}

; Function Attrs: mustprogress nounwind uwtable
define linkonce_odr noundef i64 @_ZNKSt17basic_string_viewIcSt11char_traitsIcEE13find_first_ofEPKcmm(ptr noundef nonnull align 8 dereferenceable(16) %this, ptr noundef %__str, i64 noundef %__pos, i64 noundef %__n) #0 comdat align 2 personality ptr @__gxx_personality_v0 {
entry:
  %retval = alloca i64, align 8
  %this.addr = alloca ptr, align 8
  %__str.addr = alloca ptr, align 8
  %__pos.addr = alloca i64, align 8
  %__n.addr = alloca i64, align 8
  %__p = alloca ptr, align 8
  store ptr %this, ptr %this.addr, align 8
  store ptr %__str, ptr %__str.addr, align 8
  store i64 %__pos, ptr %__pos.addr, align 8
  store i64 %__n, ptr %__n.addr, align 8
  %this1 = load ptr, ptr %this.addr, align 8
  br label %for.cond

for.cond:                                         ; preds = %for.inc, %entry
  %0 = load i64, ptr %__n.addr, align 8
  %tobool = icmp ne i64 %0, 0
  br i1 %tobool, label %land.rhs, label %land.end

land.rhs:                                         ; preds = %for.cond
  %1 = load i64, ptr %__pos.addr, align 8
  %_M_len = getelementptr inbounds %"class.std::basic_string_view", ptr %this1, i32 0, i32 0
  %2 = load i64, ptr %_M_len, align 8
  %cmp = icmp ult i64 %1, %2
  br label %land.end

land.end:                                         ; preds = %land.rhs, %for.cond
  %3 = phi i1 [ false, %for.cond ], [ %cmp, %land.rhs ]
  br i1 %3, label %for.body, label %for.end

for.body:                                         ; preds = %land.end
  %4 = load ptr, ptr %__str.addr, align 8
  %5 = load i64, ptr %__n.addr, align 8
  %_M_str = getelementptr inbounds %"class.std::basic_string_view", ptr %this1, i32 0, i32 1
  %6 = load ptr, ptr %_M_str, align 8
  %7 = load i64, ptr %__pos.addr, align 8
  %arrayidx = getelementptr inbounds i8, ptr %6, i64 %7
  %call = invoke noundef ptr @_ZNSt11char_traitsIcE4findEPKcmRS1_(ptr noundef %4, i64 noundef %5, ptr noundef nonnull align 1 dereferenceable(1) %arrayidx)
          to label %invoke.cont unwind label %terminate.lpad

invoke.cont:                                      ; preds = %for.body
  store ptr %call, ptr %__p, align 8
  %8 = load ptr, ptr %__p, align 8
  %tobool2 = icmp ne ptr %8, null
  br i1 %tobool2, label %if.then, label %if.end

if.then:                                          ; preds = %invoke.cont
  %9 = load i64, ptr %__pos.addr, align 8
  store i64 %9, ptr %retval, align 8
  br label %return

if.end:                                           ; preds = %invoke.cont
  br label %for.inc

for.inc:                                          ; preds = %if.end
  %10 = load i64, ptr %__pos.addr, align 8
  %inc = add i64 %10, 1
  store i64 %inc, ptr %__pos.addr, align 8
  br label %for.cond, !llvm.loop !11

for.end:                                          ; preds = %land.end
  store i64 -1, ptr %retval, align 8
  br label %return

return:                                           ; preds = %for.end, %if.then
  %11 = load i64, ptr %retval, align 8
  ret i64 %11

terminate.lpad:                                   ; preds = %for.body
  %12 = landingpad { ptr, i32 }
          catch ptr null
  %13 = extractvalue { ptr, i32 } %12, 0
  call void @__clang_call_terminate(ptr %13) #11
  unreachable
}

; Function Attrs: mustprogress nounwind uwtable
define linkonce_odr noundef i64 @_ZNSt11char_traitsIcE6lengthEPKc(ptr noundef %__s) #0 comdat align 2 {
entry:
  %__s.addr = alloca ptr, align 8
  store ptr %__s, ptr %__s.addr, align 8
  %0 = load ptr, ptr %__s.addr, align 8
  %call = call i64 @strlen(ptr noundef %0) #12
  ret i64 %call
}

; Function Attrs: mustprogress nounwind uwtable
define linkonce_odr void @_ZN5arrow6Status2OKEv(ptr noalias sret(%"class.arrow::Status") align 8 %agg.result) #0 comdat align 2 {
entry:
  %result.ptr = alloca ptr, align 8
  store ptr %agg.result, ptr %result.ptr, align 8
  call void @_ZN5arrow6StatusC2Ev(ptr noundef nonnull align 8 dereferenceable(8) %agg.result) #12
  ret void
}

; Function Attrs: mustprogress nounwind uwtable
define linkonce_odr noundef i64 @_ZNKSt17basic_string_viewIcSt11char_traitsIcEE6lengthEv(ptr noundef nonnull align 8 dereferenceable(16) %this) #0 comdat align 2 {
entry:
  %this.addr = alloca ptr, align 8
  store ptr %this, ptr %this.addr, align 8
  %this1 = load ptr, ptr %this.addr, align 8
  %_M_len = getelementptr inbounds %"class.std::basic_string_view", ptr %this1, i32 0, i32 0
  %0 = load i64, ptr %_M_len, align 8
  ret i64 %0
}

; Function Attrs: mustprogress nounwind uwtable
define linkonce_odr noundef i64 @_ZNKSt17basic_string_viewIcSt11char_traitsIcEE17find_first_not_ofEPKcm(ptr noundef nonnull align 8 dereferenceable(16) %this, ptr noundef nonnull %__str, i64 noundef %__pos) #0 comdat align 2 {
entry:
  %this.addr = alloca ptr, align 8
  %__str.addr = alloca ptr, align 8
  %__pos.addr = alloca i64, align 8
  store ptr %this, ptr %this.addr, align 8
  store ptr %__str, ptr %__str.addr, align 8
  store i64 %__pos, ptr %__pos.addr, align 8
  %this1 = load ptr, ptr %this.addr, align 8
  %0 = load ptr, ptr %__str.addr, align 8
  %1 = load i64, ptr %__pos.addr, align 8
  %2 = load ptr, ptr %__str.addr, align 8
  %call = call noundef i64 @_ZNSt11char_traitsIcE6lengthEPKc(ptr noundef %2)
  %call2 = call noundef i64 @_ZNKSt17basic_string_viewIcSt11char_traitsIcEE17find_first_not_ofEPKcmm(ptr noundef nonnull align 8 dereferenceable(16) %this1, ptr noundef %0, i64 noundef %1, i64 noundef %call) #12
  ret i64 %call2
}

; Function Attrs: mustprogress nounwind uwtable
define linkonce_odr noundef i64 @_ZNKSt17basic_string_viewIcSt11char_traitsIcEE13find_first_ofEPKcm(ptr noundef nonnull align 8 dereferenceable(16) %this, ptr noundef nonnull %__str, i64 noundef %__pos) #0 comdat align 2 personality ptr @__gxx_personality_v0 {
entry:
  %this.addr = alloca ptr, align 8
  %__str.addr = alloca ptr, align 8
  %__pos.addr = alloca i64, align 8
  store ptr %this, ptr %this.addr, align 8
  store ptr %__str, ptr %__str.addr, align 8
  store i64 %__pos, ptr %__pos.addr, align 8
  %this1 = load ptr, ptr %this.addr, align 8
  %0 = load ptr, ptr %__str.addr, align 8
  %1 = load i64, ptr %__pos.addr, align 8
  %2 = load ptr, ptr %__str.addr, align 8
  %call = invoke noundef i64 @_ZNSt11char_traitsIcE6lengthEPKc(ptr noundef %2)
          to label %invoke.cont unwind label %terminate.lpad

invoke.cont:                                      ; preds = %entry
  %call2 = call noundef i64 @_ZNKSt17basic_string_viewIcSt11char_traitsIcEE13find_first_ofEPKcmm(ptr noundef nonnull align 8 dereferenceable(16) %this1, ptr noundef %0, i64 noundef %1, i64 noundef %call) #12
  ret i64 %call2

terminate.lpad:                                   ; preds = %entry
  %3 = landingpad { ptr, i32 }
          catch ptr null
  %4 = extractvalue { ptr, i32 } %3, 0
  call void @__clang_call_terminate(ptr %4) #11
  unreachable
}

; Function Attrs: mustprogress nounwind uwtable
define internal void @_ZN5arrow12_GLOBAL__N_121NewlineBoundaryFinder9FindFirstESt17basic_string_viewIcSt11char_traitsIcEES5_Pl(ptr noalias sret(%"class.arrow::Status") align 8 %agg.result, ptr noundef nonnull align 8 dereferenceable(8) %this, i64 %partial.coerce0, ptr %partial.coerce1, i64 %block.coerce0, ptr %block.coerce1, ptr noundef %out_pos) unnamed_addr #0 align 2 {
entry:
  %result.ptr = alloca ptr, align 8
  %partial = alloca %"class.std::basic_string_view", align 8
  %block = alloca %"class.std::basic_string_view", align 8
  %this.addr = alloca ptr, align 8
  %out_pos.addr = alloca ptr, align 8
  %pos = alloca i64, align 8
  %end = alloca i64, align 8
  store ptr %agg.result, ptr %result.ptr, align 8
  %0 = getelementptr inbounds { i64, ptr }, ptr %partial, i32 0, i32 0
  store i64 %partial.coerce0, ptr %0, align 8
  %1 = getelementptr inbounds { i64, ptr }, ptr %partial, i32 0, i32 1
  store ptr %partial.coerce1, ptr %1, align 8
  %2 = getelementptr inbounds { i64, ptr }, ptr %block, i32 0, i32 0
  store i64 %block.coerce0, ptr %2, align 8
  %3 = getelementptr inbounds { i64, ptr }, ptr %block, i32 0, i32 1
  store ptr %block.coerce1, ptr %3, align 8
  store ptr %this, ptr %this.addr, align 8
  store ptr %out_pos, ptr %out_pos.addr, align 8
  %call = call noundef i64 @_ZNKSt17basic_string_viewIcSt11char_traitsIcEE13find_first_ofEPKcm(ptr noundef nonnull align 8 dereferenceable(16) %block, ptr noundef @.str.1, i64 noundef 0) #12
  store i64 %call, ptr %pos, align 8
  %4 = load i64, ptr %pos, align 8
  %cmp = icmp eq i64 %4, -1
  br i1 %cmp, label %if.then, label %if.else

if.then:                                          ; preds = %entry
  %5 = load ptr, ptr %out_pos.addr, align 8
  store i64 -1, ptr %5, align 8
  br label %if.end6

if.else:                                          ; preds = %entry
  %6 = load i64, ptr %pos, align 8
  %call2 = call noundef i64 @_ZNKSt17basic_string_viewIcSt11char_traitsIcEE17find_first_not_ofEPKcm(ptr noundef nonnull align 8 dereferenceable(16) %block, ptr noundef @.str.1, i64 noundef %6) #12
  store i64 %call2, ptr %end, align 8
  %7 = load i64, ptr %end, align 8
  %cmp3 = icmp eq i64 %7, -1
  br i1 %cmp3, label %if.then4, label %if.end

if.then4:                                         ; preds = %if.else
  %call5 = call noundef i64 @_ZNKSt17basic_string_viewIcSt11char_traitsIcEE6lengthEv(ptr noundef nonnull align 8 dereferenceable(16) %block) #12
  store i64 %call5, ptr %end, align 8
  br label %if.end

if.end:                                           ; preds = %if.then4, %if.else
  %8 = load i64, ptr %end, align 8
  %9 = load ptr, ptr %out_pos.addr, align 8
  store i64 %8, ptr %9, align 8
  br label %if.end6

if.end6:                                          ; preds = %if.end, %if.then
  call void @_ZN5arrow6Status2OKEv(ptr sret(%"class.arrow::Status") align 8 %agg.result)
  ret void
}