; Function Attrs: mustprogress nofree norecurse nosync nounwind memory(argmem: readwrite) uwtable
define internal void @_ZN5arrow12_GLOBAL__N_121NewlineBoundaryFinder9FindFirstESt17basic_string_viewIcSt11char_traitsIcEES5_Pl(ptr noalias nocapture writeonly sret(%"class.arrow::Status") align 8 %agg.result, ptr nocapture nonnull readnone align 8 %this, i64 %partial.coerce0, ptr nocapture readnone %partial.coerce1, i64 %block.coerce0, ptr nocapture readonly %block.coerce1, ptr nocapture noundef writeonly %out_pos) unnamed_addr #13 align 2 personality ptr @__gxx_personality_v0 {
entry:
  %cmp5.i.i.not = icmp eq i64 %block.coerce0, 0
  br i1 %cmp5.i.i.not, label %if.end6, label %_ZNSt11char_traitsIcE4findEPKcmRS1_.exit.i.i

_ZNSt11char_traitsIcE4findEPKcmRS1_.exit.i.i:     ; preds = %entry, %for.inc.i.i
  %__pos.addr.07.i.i = phi i64 [ %inc.i.i, %for.inc.i.i ], [ 0, %entry ]
  %arrayidx.i.i = getelementptr inbounds i8, ptr %block.coerce1, i64 %__pos.addr.07.i.i
  %0 = load i8, ptr %arrayidx.i.i, align 1
  switch i8 %0, label %for.inc.i.i [
    i8 13, label %_ZNKSt17basic_string_viewIcSt11char_traitsIcEE13find_first_ofEPKcm.exit
    i8 10, label %_ZNKSt17basic_string_viewIcSt11char_traitsIcEE13find_first_ofEPKcm.exit
  ]

for.inc.i.i:                                      ; preds = %_ZNSt11char_traitsIcE4findEPKcmRS1_.exit.i.i
  %inc.i.i = add nuw i64 %__pos.addr.07.i.i, 1
  %exitcond.not.i.i = icmp eq i64 %inc.i.i, %block.coerce0
  br i1 %exitcond.not.i.i, label %if.end6, label %_ZNSt11char_traitsIcE4findEPKcmRS1_.exit.i.i, !llvm.loop !104

_ZNKSt17basic_string_viewIcSt11char_traitsIcEE13find_first_ofEPKcm.exit: ; preds = %_ZNSt11char_traitsIcE4findEPKcmRS1_.exit.i.i, %_ZNSt11char_traitsIcE4findEPKcmRS1_.exit.i.i
  %cmp = icmp eq i64 %__pos.addr.07.i.i, -1
  br i1 %cmp, label %if.end6, label %if.else

if.else:                                          ; preds = %_ZNKSt17basic_string_viewIcSt11char_traitsIcEE13find_first_ofEPKcm.exit
  %cmp6.i.i = icmp ult i64 %__pos.addr.07.i.i, %block.coerce0
  br i1 %cmp6.i.i, label %for.body.i.i, label %if.then4

for.body.i.i:                                     ; preds = %if.else, %for.inc.i.i12
  %__pos.addr.07.i.i7 = phi i64 [ %inc.i.i13, %for.inc.i.i12 ], [ %__pos.addr.07.i.i, %if.else ]
  %arrayidx.i.i8 = getelementptr inbounds i8, ptr %block.coerce1, i64 %__pos.addr.07.i.i7
  %1 = load i8, ptr %arrayidx.i.i8, align 1
  switch i8 %1, label %_ZNKSt17basic_string_viewIcSt11char_traitsIcEE17find_first_not_ofEPKcm.exit [
    i8 13, label %for.inc.i.i12
    i8 10, label %for.inc.i.i12
  ]

for.inc.i.i12:                                    ; preds = %for.body.i.i, %for.body.i.i
  %inc.i.i13 = add i64 %__pos.addr.07.i.i7, 1
  %exitcond.not.i.i14 = icmp eq i64 %inc.i.i13, %block.coerce0
  br i1 %exitcond.not.i.i14, label %if.then4, label %for.body.i.i, !llvm.loop !106

_ZNKSt17basic_string_viewIcSt11char_traitsIcEE17find_first_not_ofEPKcm.exit: ; preds = %for.body.i.i
  %cmp3 = icmp eq i64 %__pos.addr.07.i.i7, -1
  br i1 %cmp3, label %if.then4, label %if.end6

if.then4:                                         ; preds = %for.inc.i.i12, %if.else, %_ZNKSt17basic_string_viewIcSt11char_traitsIcEE17find_first_not_ofEPKcm.exit
  br label %if.end6

if.end6:                                          ; preds = %for.inc.i.i, %entry, %_ZNKSt17basic_string_viewIcSt11char_traitsIcEE17find_first_not_ofEPKcm.exit, %if.then4, %_ZNKSt17basic_string_viewIcSt11char_traitsIcEE13find_first_ofEPKcm.exit
  %storemerge = phi i64 [ -1, %_ZNKSt17basic_string_viewIcSt11char_traitsIcEE13find_first_ofEPKcm.exit ], [ %block.coerce0, %if.then4 ], [ %__pos.addr.07.i.i7, %_ZNKSt17basic_string_viewIcSt11char_traitsIcEE17find_first_not_ofEPKcm.exit ], [ -1, %entry ], [ -1, %for.inc.i.i ]
  store i64 %storemerge, ptr %out_pos, align 8
  store ptr null, ptr %agg.result, align 8, !alias.scope !107
  ret void
}